; ModuleID = '58/663.c'
source_filename = "58/663.c"
target datalayout = "e-m:e-p270:32:32-p271:32:32-p272:64:64-i64:64-f80:128-n8:16:32:64-S128"
target triple = "x86_64-pc-linux-gnu"

@.str = private unnamed_addr constant [4 x i8] c"%d\0A\00", align 1
@.str.1 = private unnamed_addr constant [3 x i8] c"1\0A\00", align 1
@.str.2 = private unnamed_addr constant [3 x i8] c"0\0A\00", align 1

; Function Attrs: noinline nounwind uwtable
define dso_local i32 @First(i8 signext %0) #0 {
  %2 = alloca i32, align 4
  %3 = alloca i8, align 1
  store i8 %0, i8* %3, align 1
  %4 = load i8, i8* %3, align 1
  %5 = sext i8 %4 to i32
  %6 = icmp ne i32 %5, 95
  br i1 %6, label %7, label %24

7:                                                ; preds = %1
  %8 = load i8, i8* %3, align 1
  %9 = sext i8 %8 to i32
  %10 = icmp slt i32 %9, 65
  br i1 %10, label %23, label %11

11:                                               ; preds = %7
  %12 = load i8, i8* %3, align 1
  %13 = sext i8 %12 to i32
  %14 = icmp sgt i32 %13, 90
  br i1 %14, label %15, label %19

15:                                               ; preds = %11
  %16 = load i8, i8* %3, align 1
  %17 = sext i8 %16 to i32
  %18 = icmp slt i32 %17, 97
  br i1 %18, label %23, label %19

19:                                               ; preds = %15, %11
  %20 = load i8, i8* %3, align 1
  %21 = sext i8 %20 to i32
  %22 = icmp sgt i32 %21, 122
  br i1 %22, label %23, label %24

23:                                               ; preds = %19, %15, %7
  store i32 0, i32* %2, align 4
  br label %25

24:                                               ; preds = %19, %1
  store i32 1, i32* %2, align 4
  br label %25

25:                                               ; preds = %24, %23
  %26 = load i32, i32* %2, align 4
  ret i32 %26
}

; Function Attrs: noinline nounwind uwtable
define dso_local i32 @Rest(i8 signext %0) #0 {
  %2 = alloca i32, align 4
  %3 = alloca i8, align 1
  store i8 %0, i8* %3, align 1
  %4 = load i8, i8* %3, align 1
  %5 = sext i8 %4 to i32
  %6 = icmp ne i32 %5, 95
  br i1 %6, label %7, label %32

7:                                                ; preds = %1
  %8 = load i8, i8* %3, align 1
  %9 = sext i8 %8 to i32
  %10 = icmp slt i32 %9, 48
  br i1 %10, label %31, label %11

11:                                               ; preds = %7
  %12 = load i8, i8* %3, align 1
  %13 = sext i8 %12 to i32
  %14 = icmp sgt i32 %13, 57
  br i1 %14, label %15, label %19

15:                                               ; preds = %11
  %16 = load i8, i8* %3, align 1
  %17 = sext i8 %16 to i32
  %18 = icmp slt i32 %17, 65
  br i1 %18, label %31, label %19

19:                                               ; preds = %15, %11
  %20 = load i8, i8* %3, align 1
  %21 = sext i8 %20 to i32
  %22 = icmp sgt i32 %21, 90
  br i1 %22, label %23, label %27

23:                                               ; preds = %19
  %24 = load i8, i8* %3, align 1
  %25 = sext i8 %24 to i32
  %26 = icmp slt i32 %25, 97
  br i1 %26, label %31, label %27

27:                                               ; preds = %23, %19
  %28 = load i8, i8* %3, align 1
  %29 = sext i8 %28 to i32
  %30 = icmp sgt i32 %29, 122
  br i1 %30, label %31, label %32

31:                                               ; preds = %27, %23, %15, %7
  store i32 0, i32* %2, align 4
  br label %33

32:                                               ; preds = %27, %1
  store i32 1, i32* %2, align 4
  br label %33

33:                                               ; preds = %32, %31
  %34 = load i32, i32* %2, align 4
  ret i32 %34
}

; Function Attrs: noinline nounwind uwtable
define dso_local i32 @main() #0 {
  %1 = alloca i32, align 4
  %2 = alloca i32, align 4
  %3 = alloca i32, align 4
  %4 = alloca i32, align 4
  %5 = alloca i32, align 4
  %6 = alloca [81 x i8], align 16
  store i32 0, i32* %1, align 4
  %7 = call i32 (i8*, ...) @__isoc99_scanf(i8* getelementptr inbounds ([4 x i8], [4 x i8]* @.str, i64 0, i64 0), i32* %2)
  store i32 0, i32* %3, align 4
  br label %8

8:                                                ; preds = %50, %0
  %9 = load i32, i32* %3, align 4
  %10 = load i32, i32* %2, align 4
  %11 = icmp slt i32 %9, %10
  br i1 %11, label %12, label %53

12:                                               ; preds = %8
  %13 = getelementptr inbounds [81 x i8], [81 x i8]* %6, i64 0, i64 0
  %14 = call i32 (i8*, ...) bitcast (i32 (...)* @gets to i32 (i8*, ...)*)(i8* %13)
  store i32 1, i32* %5, align 4
  %15 = getelementptr inbounds [81 x i8], [81 x i8]* %6, i64 0, i64 0
  %16 = load i8, i8* %15, align 16
  %17 = call i32 @First(i8 signext %16)
  %18 = icmp ne i32 %17, 0
  br i1 %18, label %19, label %41

19:                                               ; preds = %12
  store i32 1, i32* %4, align 4
  br label %20

20:                                               ; preds = %37, %19
  %21 = load i32, i32* %4, align 4
  %22 = sext i32 %21 to i64
  %23 = getelementptr inbounds [81 x i8], [81 x i8]* %6, i64 0, i64 %22
  %24 = load i8, i8* %23, align 1
  %25 = sext i8 %24 to i32
  %26 = icmp ne i32 %25, 0
  br i1 %26, label %27, label %40

27:                                               ; preds = %20
  %28 = load i32, i32* %4, align 4
  %29 = sext i32 %28 to i64
  %30 = getelementptr inbounds [81 x i8], [81 x i8]* %6, i64 0, i64 %29
  %31 = load i8, i8* %30, align 1
  %32 = call i32 @Rest(i8 signext %31)
  %33 = icmp ne i32 %32, 0
  br i1 %33, label %34, label %35

34:                                               ; preds = %27
  store i32 1, i32* %5, align 4
  br label %36

35:                                               ; preds = %27
  store i32 0, i32* %5, align 4
  br label %40

36:                                               ; preds = %34
  br label %37

37:                                               ; preds = %36
  %38 = load i32, i32* %4, align 4
  %39 = add nsw i32 %38, 1
  store i32 %39, i32* %4, align 4
  br label %20

40:                                               ; preds = %35, %20
  br label %42

41:                                               ; preds = %12
  store i32 0, i32* %5, align 4
  br label %42

42:                                               ; preds = %41, %40
  %43 = load i32, i32* %5, align 4
  %44 = icmp eq i32 %43, 1
  br i1 %44, label %45, label %47

45:                                               ; preds = %42
  %46 = call i32 (i8*, ...) @printf(i8* getelementptr inbounds ([3 x i8], [3 x i8]* @.str.1, i64 0, i64 0))
  br label %49

47:                                               ; preds = %42
  %48 = call i32 (i8*, ...) @printf(i8* getelementptr inbounds ([3 x i8], [3 x i8]* @.str.2, i64 0, i64 0))
  br label %49

49:                                               ; preds = %47, %45
  br label %50

50:                                               ; preds = %49
  %51 = load i32, i32* %3, align 4
  %52 = add nsw i32 %51, 1
  store i32 %52, i32* %3, align 4
  br label %8

53:                                               ; preds = %8
  ret i32 0
}

declare dso_local i32 @__isoc99_scanf(i8*, ...) #1

declare dso_local i32 @gets(...) #1

declare dso_local i32 @printf(i8*, ...) #1


!llvm.module.flags = !{!0}
!llvm.ident = !{!1}

!0 = !{i32 1, !"wchar_size", i32 4}
!1 = !{!"clang version 10.0.0-4ubuntu1 "}
